target datalayout = "e-m:e-p270:32:32-p271:32:32-p272:64:64-i64:64-i128:128-f80:128-n8:16:32:64-S128"
target triple = "x86_64-pc-linux-gnu"

%"class.absl::lts_20240722::Status" = type { i64 }
%class.anon.83 = type { ptr }

; Function Attrs: mustprogress nounwind uwtable
define linkonce_odr noundef i64 @_ZN4absl12lts_202407226Status16CodeToInlinedRepENS0_10StatusCodeE(i32 noundef %0) #6 comdat align 2 {
  %2 = alloca i32, align 4
  store i32 %0, ptr %2, align 4, !tbaa !383
  %3 = load i32, ptr %2, align 4, !tbaa !383
  %4 = sext i32 %3 to i64
  %5 = shl i64 %4, 2
  %6 = add i64 %5, 1
  ret i64 %6
}

; Function Attrs: mustprogress uwtable
define linkonce_odr noundef i64 @_ZN4absl12lts_202407226Status12MovedFromRepEv() #4 comdat align 2 {
  %1 = call noundef i64 @_ZN4absl12lts_202407226Status16CodeToInlinedRepENS0_10StatusCodeE(i32 noundef 13)
  %2 = or i64 %1, 2
  ret i64 %2
}

; Function Attrs: mustprogress nounwind uwtable
define linkonce_odr void @_ZN4absl12lts_202407226StatusC2Em(ptr noundef nonnull align 8 dereferenceable(8) %0, i64 noundef %1) unnamed_addr #6 comdat align 2 {
  %3 = alloca ptr, align 8
  %4 = alloca i64, align 8
  store ptr %0, ptr %3, align 8, !tbaa !95
  store i64 %1, ptr %4, align 8, !tbaa !21
  %5 = load ptr, ptr %3, align 8
  %6 = getelementptr inbounds nuw %"class.absl::lts_20240722::Status", ptr %5, i32 0, i32 0
  %7 = load i64, ptr %4, align 8, !tbaa !21
  store i64 %7, ptr %6, align 8, !tbaa !100
  ret void
}

; Function Attrs: inlinehint mustprogress uwtable
define internal void @"_ZZN17grpc_event_engine12experimental17PosixEndpointImplC1EPNS0_11EventHandleEPNS0_18PosixEngineClosureESt10shared_ptrINS0_11EventEngineEEONS0_15MemoryAllocatorERKNS0_15PosixTcpOptionsEENK3$_0clEN4absl12lts_202407226StatusE"(ptr noundef nonnull align 8 dereferenceable(8) %0, ptr noundef %1) #9 align 2 personality ptr @__gxx_personality_v0 {
  %3 = alloca ptr, align 8
  %4 = alloca ptr, align 8
  %5 = alloca %"class.absl::lts_20240722::Status", align 8
  %6 = alloca ptr, align 8
  %7 = alloca i32, align 4
  store ptr %0, ptr %3, align 8, !tbaa !154
  store ptr %1, ptr %4, align 8, !tbaa !95
  %8 = load ptr, ptr %3, align 8
  %9 = getelementptr inbounds nuw %class.anon.83, ptr %8, i32 0, i32 0
  %10 = load ptr, ptr %9, align 8, !tbaa !337
  call void @_ZN4absl12lts_202407226StatusC2EOS1_(ptr noundef nonnull align 8 dereferenceable(8) %5, ptr noundef nonnull align 8 dereferenceable(8) %1) #3
  invoke void @_ZN17grpc_event_engine12experimental17PosixEndpointImpl10HandleReadEN4absl12lts_202407226StatusE(ptr noundef nonnull align 16 dereferenceable(904) %10, ptr noundef %5)
          to label %11 unwind label %12

11:                                               ; preds = %2
  call void @_ZN4absl12lts_202407226StatusD2Ev(ptr noundef nonnull align 8 dereferenceable(8) %5) #3
  ret void

12:                                               ; preds = %2
  %13 = landingpad { ptr, i32 }
          cleanup
  %14 = extractvalue { ptr, i32 } %13, 0
  store ptr %14, ptr %6, align 8
  %15 = extractvalue { ptr, i32 } %13, 1
  store i32 %15, ptr %7, align 4
  call void @_ZN4absl12lts_202407226StatusD2Ev(ptr noundef nonnull align 8 dereferenceable(8) %5) #3
  br label %16

16:                                               ; preds = %12
  %17 = load ptr, ptr %6, align 8
  %18 = load i32, ptr %7, align 4
  %19 = insertvalue { ptr, i32 } poison, ptr %17, 0
  %20 = insertvalue { ptr, i32 } %19, i32 %18, 1
  resume { ptr, i32 } %20
}

; Function Attrs: inlinehint mustprogress nounwind uwtable
define linkonce_odr void @_ZN4absl12lts_202407226StatusC2EOS1_(ptr noundef nonnull align 8 dereferenceable(8) %0, ptr noundef nonnull align 8 dereferenceable(8) %1) unnamed_addr #7 comdat align 2 personality ptr @__gxx_personality_v0 {
  %3 = alloca ptr, align 8
  %4 = alloca ptr, align 8
  store ptr %0, ptr %3, align 8, !tbaa !95
  store ptr %1, ptr %4, align 8, !tbaa !95
  %5 = load ptr, ptr %3, align 8
  %6 = load ptr, ptr %4, align 8, !tbaa !95
  %7 = getelementptr inbounds nuw %"class.absl::lts_20240722::Status", ptr %6, i32 0, i32 0
  %8 = load i64, ptr %7, align 8, !tbaa !100
  invoke void @_ZN4absl12lts_202407226StatusC2Em(ptr noundef nonnull align 8 dereferenceable(8) %5, i64 noundef %8)
          to label %9 unwind label %14

9:                                                ; preds = %2
  %10 = invoke noundef i64 @_ZN4absl12lts_202407226Status12MovedFromRepEv()
          to label %11 unwind label %14

11:                                               ; preds = %9
  %12 = load ptr, ptr %4, align 8, !tbaa !95
  %13 = getelementptr inbounds nuw %"class.absl::lts_20240722::Status", ptr %12, i32 0, i32 0
  store i64 %10, ptr %13, align 8, !tbaa !100
  ret void

14:                                               ; preds = %9, %2
  %15 = landingpad { ptr, i32 }
          catch ptr null
  %16 = extractvalue { ptr, i32 } %15, 0
  call void @__clang_call_terminate(ptr %16) #38
  unreachable
}

; Function Attrs: mustprogress uwtable
define internal void @"_ZSt13__invoke_implIvRZN17grpc_event_engine12experimental17PosixEndpointImplC1EPNS1_11EventHandleEPNS1_18PosixEngineClosureESt10shared_ptrINS1_11EventEngineEEONS1_15MemoryAllocatorERKNS1_15PosixTcpOptionsEE3$_0JN4absl12lts_202407226StatusEEET_St14__invoke_otherOT0_DpOT1_"(ptr noundef nonnull align 8 dereferenceable(8) %0, ptr noundef nonnull align 8 dereferenceable(8) %1) #4 personality ptr @__gxx_personality_v0 {
  %3 = alloca ptr, align 8
  %4 = alloca ptr, align 8
  %5 = alloca %"class.absl::lts_20240722::Status", align 8
  %6 = alloca ptr, align 8
  %7 = alloca i32, align 4
  store ptr %0, ptr %3, align 8, !tbaa !154
  store ptr %1, ptr %4, align 8, !tbaa !95
  %8 = load ptr, ptr %3, align 8, !tbaa !154
  %9 = load ptr, ptr %4, align 8, !tbaa !95
  call void @_ZN4absl12lts_202407226StatusC2EOS1_(ptr noundef nonnull align 8 dereferenceable(8) %5, ptr noundef nonnull align 8 dereferenceable(8) %9) #3
  invoke void @"_ZZN17grpc_event_engine12experimental17PosixEndpointImplC1EPNS0_11EventHandleEPNS0_18PosixEngineClosureESt10shared_ptrINS0_11EventEngineEEONS0_15MemoryAllocatorERKNS0_15PosixTcpOptionsEENK3$_0clEN4absl12lts_202407226StatusE"(ptr noundef nonnull align 8 dereferenceable(8) %8, ptr noundef %5)
          to label %10 unwind label %11

10:                                               ; preds = %2
  call void @_ZN4absl12lts_202407226StatusD2Ev(ptr noundef nonnull align 8 dereferenceable(8) %5) #3
  ret void

11:                                               ; preds = %2
  %12 = landingpad { ptr, i32 }
          cleanup
  %13 = extractvalue { ptr, i32 } %12, 0
  store ptr %13, ptr %6, align 8
  %14 = extractvalue { ptr, i32 } %12, 1
  store i32 %14, ptr %7, align 4
  call void @_ZN4absl12lts_202407226StatusD2Ev(ptr noundef nonnull align 8 dereferenceable(8) %5) #3
  br label %15

15:                                               ; preds = %11
  %16 = load ptr, ptr %6, align 8
  %17 = load i32, ptr %7, align 4
  %18 = insertvalue { ptr, i32 } poison, ptr %16, 0
  %19 = insertvalue { ptr, i32 } %18, i32 %17, 1
  resume { ptr, i32 } %19
}

; Function Attrs: mustprogress uwtable
define internal void @"_ZSt8__invokeIRZN17grpc_event_engine12experimental17PosixEndpointImplC1EPNS1_11EventHandleEPNS1_18PosixEngineClosureESt10shared_ptrINS1_11EventEngineEEONS1_15MemoryAllocatorERKNS1_15PosixTcpOptionsEE3$_0JN4absl12lts_202407226StatusEEENSt15__invoke_resultIT_JDpT0_EE4typeEOSL_DpOSM_"(ptr noundef nonnull align 8 dereferenceable(8) %0, ptr noundef nonnull align 8 dereferenceable(8) %1) #4 {
  %3 = alloca ptr, align 8
  %4 = alloca ptr, align 8
  store ptr %0, ptr %3, align 8, !tbaa !154
  store ptr %1, ptr %4, align 8, !tbaa !95
  %5 = load ptr, ptr %3, align 8, !tbaa !154
  %6 = load ptr, ptr %4, align 8, !tbaa !95
  call void @"_ZSt13__invoke_implIvRZN17grpc_event_engine12experimental17PosixEndpointImplC1EPNS1_11EventHandleEPNS1_18PosixEngineClosureESt10shared_ptrINS1_11EventEngineEEONS1_15MemoryAllocatorERKNS1_15PosixTcpOptionsEE3$_0JN4absl12lts_202407226StatusEEET_St14__invoke_otherOT0_DpOT1_"(ptr noundef nonnull align 8 dereferenceable(8) %5, ptr noundef nonnull align 8 dereferenceable(8) %6)
  ret void
}

; Function Attrs: inlinehint mustprogress uwtable
define internal void @"_ZSt6invokeIRZN17grpc_event_engine12experimental17PosixEndpointImplC1EPNS1_11EventHandleEPNS1_18PosixEngineClosureESt10shared_ptrINS1_11EventEngineEEONS1_15MemoryAllocatorERKNS1_15PosixTcpOptionsEE3$_0JN4absl12lts_202407226StatusEEENSt13invoke_resultIT_JDpT0_EE4typeEOSL_DpOSM_"(ptr noundef nonnull align 8 dereferenceable(8) %0, ptr noundef nonnull align 8 dereferenceable(8) %1) #9 {
  %3 = alloca ptr, align 8
  %4 = alloca ptr, align 8
  store ptr %0, ptr %3, align 8, !tbaa !154
  store ptr %1, ptr %4, align 8, !tbaa !95
  %5 = load ptr, ptr %3, align 8, !tbaa !154
  %6 = load ptr, ptr %4, align 8, !tbaa !95
  call void @"_ZSt8__invokeIRZN17grpc_event_engine12experimental17PosixEndpointImplC1EPNS1_11EventHandleEPNS1_18PosixEngineClosureESt10shared_ptrINS1_11EventEngineEEONS1_15MemoryAllocatorERKNS1_15PosixTcpOptionsEE3$_0JN4absl12lts_202407226StatusEEENSt15__invoke_resultIT_JDpT0_EE4typeEOSL_DpOSM_"(ptr noundef nonnull align 8 dereferenceable(8) %5, ptr noundef nonnull align 8 dereferenceable(8) %6)
  ret void
}

; Function Attrs: mustprogress nounwind uwtable
define internal noundef ptr @"_ZSt7launderIZN17grpc_event_engine12experimental17PosixEndpointImplC1EPNS1_11EventHandleEPNS1_18PosixEngineClosureESt10shared_ptrINS1_11EventEngineEEONS1_15MemoryAllocatorERKNS1_15PosixTcpOptionsEE3$_0EPT_SH_"(ptr noundef %0) #6 {
  %2 = alloca ptr, align 8
  store ptr %0, ptr %2, align 8, !tbaa !154
  %3 = load ptr, ptr %2, align 8, !tbaa !154
  ret ptr %3
}

; Function Attrs: mustprogress uwtable
define internal void @"_ZN4absl12lts_2024072222internal_any_invocable7InvokeRIvRZN17grpc_event_engine12experimental17PosixEndpointImplC1EPNS4_11EventHandleEPNS4_18PosixEngineClosureESt10shared_ptrINS4_11EventEngineEEONS4_15MemoryAllocatorERKNS4_15PosixTcpOptionsEE3$_0JNS0_6StatusEEvEEvOT0_DpOT1_"(ptr noundef nonnull align 8 dereferenceable(8) %0, ptr noundef nonnull align 8 dereferenceable(8) %1) #4 {
  %3 = alloca ptr, align 8
  %4 = alloca ptr, align 8
  store ptr %0, ptr %3, align 8, !tbaa !154
  store ptr %1, ptr %4, align 8, !tbaa !95
  %5 = load ptr, ptr %3, align 8, !tbaa !154
  %6 = load ptr, ptr %4, align 8, !tbaa !95
  call void @"_ZSt6invokeIRZN17grpc_event_engine12experimental17PosixEndpointImplC1EPNS1_11EventHandleEPNS1_18PosixEngineClosureESt10shared_ptrINS1_11EventEngineEEONS1_15MemoryAllocatorERKNS1_15PosixTcpOptionsEE3$_0JN4absl12lts_202407226StatusEEENSt13invoke_resultIT_JDpT0_EE4typeEOSL_DpOSM_"(ptr noundef nonnull align 8 dereferenceable(8) %5, ptr noundef nonnull align 8 dereferenceable(8) %6)
  ret void
}

; Function Attrs: mustprogress nounwind uwtable
define internal noundef nonnull align 8 dereferenceable(8) ptr @"_ZN4absl12lts_2024072222internal_any_invocable20ObjectInLocalStorageIZN17grpc_event_engine12experimental17PosixEndpointImplC1EPNS4_11EventHandleEPNS4_18PosixEngineClosureESt10shared_ptrINS4_11EventEngineEEONS4_15MemoryAllocatorERKNS4_15PosixTcpOptionsEE3$_0EERT_PNS1_15TypeErasedStateE"(ptr noundef %0) #6 {
  %2 = alloca ptr, align 8
  store ptr %0, ptr %2, align 8, !tbaa !465
  %3 = load ptr, ptr %2, align 8, !tbaa !465
  %4 = call noundef ptr @"_ZSt7launderIZN17grpc_event_engine12experimental17PosixEndpointImplC1EPNS1_11EventHandleEPNS1_18PosixEngineClosureESt10shared_ptrINS1_11EventEngineEEONS1_15MemoryAllocatorERKNS1_15PosixTcpOptionsEE3$_0EPT_SH_"(ptr noundef %3) #3
  ret ptr %4
}

; Function Attrs: mustprogress uwtable
define internal void @"_ZN4absl12lts_2024072222internal_any_invocable12LocalInvokerILb0EvRZN17grpc_event_engine12experimental17PosixEndpointImplC1EPNS4_11EventHandleEPNS4_18PosixEngineClosureESt10shared_ptrINS4_11EventEngineEEONS4_15MemoryAllocatorERKNS4_15PosixTcpOptionsEE3$_0JNS0_6StatusEEEET0_PNS1_15TypeErasedStateEDpNS1_18ForwardedParameterIT2_E4typeE"(ptr noundef %0, ptr noundef nonnull align 8 dereferenceable(8) %1) #4 {
  %3 = alloca ptr, align 8
  %4 = alloca ptr, align 8
  %5 = alloca ptr, align 8
  store ptr %0, ptr %3, align 8, !tbaa !465
  store ptr %1, ptr %4, align 8, !tbaa !95
  call void @llvm.lifetime.start.p0(i64 8, ptr %5) #3
  %6 = load ptr, ptr %3, align 8, !tbaa !465
  %7 = call noundef nonnull align 8 dereferenceable(8) ptr @"_ZN4absl12lts_2024072222internal_any_invocable20ObjectInLocalStorageIZN17grpc_event_engine12experimental17PosixEndpointImplC1EPNS4_11EventHandleEPNS4_18PosixEngineClosureESt10shared_ptrINS4_11EventEngineEEONS4_15MemoryAllocatorERKNS4_15PosixTcpOptionsEE3$_0EERT_PNS1_15TypeErasedStateE"(ptr noundef %6)
  store ptr %7, ptr %5, align 8, !tbaa !154
  %8 = load ptr, ptr %5, align 8, !tbaa !154
  %9 = load ptr, ptr %4, align 8, !tbaa !95
  call void @"_ZN4absl12lts_2024072222internal_any_invocable7InvokeRIvRZN17grpc_event_engine12experimental17PosixEndpointImplC1EPNS4_11EventHandleEPNS4_18PosixEngineClosureESt10shared_ptrINS4_11EventEngineEEONS4_15MemoryAllocatorERKNS4_15PosixTcpOptionsEE3$_0JNS0_6StatusEEvEEvOT0_DpOT1_"(ptr noundef nonnull align 8 dereferenceable(8) %8, ptr noundef nonnull align 8 dereferenceable(8) %9)
  call void @llvm.lifetime.end.p0(i64 8, ptr %5) #3
  ret void
}